; Function Attrs: mustprogress nofree norecurse nosync nounwind memory(write, argmem: readwrite, inaccessiblemem: none) uwtable
define hidden void @_ZN2cv11bioinspired11RetinaColor15clearAllBuffersEv(ptr noundef nonnull readonly align 8 captures(none) dereferenceable(349) %0) local_unnamed_addr #5 align 2 {
  %2 = getelementptr inbounds nuw i8, ptr %0, i64 16
  %3 = load i64, ptr %2, align 8, !tbaa !13
  %.not3.i.i.i.i.i = icmp eq i64 %3, 0
  br i1 %.not3.i.i.i.i.i, label %_ZN2cv11bioinspired17BasicRetinaFilter17clearOutputBufferEv.exit.i, label %.lr.ph.i.i.i.preheader.i.i

.lr.ph.i.i.i.preheader.i.i:                       ; preds = %1
  %4 = getelementptr inbounds nuw i8, ptr %0, i64 24
  %5 = load ptr, ptr %4, align 8, !tbaa !16
  %6 = shl nuw i64 %3, 2
  tail call void @llvm.memset.p0.i64(ptr align 4 %5, i8 0, i64 %6, i1 false), !tbaa !31, !alias.scope !94
  br label %_ZN2cv11bioinspired17BasicRetinaFilter17clearOutputBufferEv.exit.i

_ZN2cv11bioinspired17BasicRetinaFilter17clearOutputBufferEv.exit.i: ; preds = %.lr.ph.i.i.i.preheader.i.i, %1
  %7 = getelementptr inbounds nuw i8, ptr %0, i64 72
  %8 = load i64, ptr %7, align 8, !tbaa !13
  %.not3.i.i.i.i = icmp eq i64 %8, 0
  br i1 %.not3.i.i.i.i, label %_ZN2cv11bioinspired17BasicRetinaFilter15clearAllBuffersEv.exit, label %.lr.ph.i.i.preheader.i.i

.lr.ph.i.i.preheader.i.i:                         ; preds = %_ZN2cv11bioinspired17BasicRetinaFilter17clearOutputBufferEv.exit.i
  %9 = getelementptr inbounds nuw i8, ptr %0, i64 80
  %10 = load ptr, ptr %9, align 8, !tbaa !16
  %11 = shl nuw i64 %8, 2
  tail call void @llvm.memset.p0.i64(ptr align 4 %10, i8 0, i64 %11, i1 false), !tbaa !31, !alias.scope !97
  br label %_ZN2cv11bioinspired17BasicRetinaFilter15clearAllBuffersEv.exit

_ZN2cv11bioinspired17BasicRetinaFilter15clearAllBuffersEv.exit: ; preds = %_ZN2cv11bioinspired17BasicRetinaFilter17clearOutputBufferEv.exit.i, %.lr.ph.i.i.preheader.i.i
  %12 = getelementptr inbounds nuw i8, ptr %0, i64 240
  %13 = load i64, ptr %12, align 8, !tbaa !13
  %.not3.i.i = icmp eq i64 %13, 0
  br i1 %.not3.i.i, label %_ZNSt8valarrayIfEaSERKf.exit, label %.lr.ph.i.i.preheader

.lr.ph.i.i.preheader:                             ; preds = %_ZN2cv11bioinspired17BasicRetinaFilter15clearAllBuffersEv.exit
  %14 = getelementptr inbounds nuw i8, ptr %0, i64 248
  %15 = load ptr, ptr %14, align 8, !tbaa !16
  %16 = shl nuw i64 %13, 2
  tail call void @llvm.memset.p0.i64(ptr align 4 %15, i8 0, i64 %16, i1 false), !tbaa !31, !alias.scope !100
  br label %_ZNSt8valarrayIfEaSERKf.exit

_ZNSt8valarrayIfEaSERKf.exit:                     ; preds = %.lr.ph.i.i.preheader, %_ZN2cv11bioinspired17BasicRetinaFilter15clearAllBuffersEv.exit
  %17 = getelementptr inbounds nuw i8, ptr %0, i64 256
  %18 = load i64, ptr %17, align 8, !tbaa !13
  %.not3.i.i1 = icmp eq i64 %18, 0
  br i1 %.not3.i.i1, label %_ZNSt8valarrayIfEaSERKf.exit6, label %.lr.ph.i.i2.preheader

.lr.ph.i.i2.preheader:                            ; preds = %_ZNSt8valarrayIfEaSERKf.exit
  %19 = getelementptr inbounds nuw i8, ptr %0, i64 264
  %20 = load ptr, ptr %19, align 8, !tbaa !16
  %21 = shl nuw i64 %18, 2
  tail call void @llvm.memset.p0.i64(ptr align 4 %20, i8 0, i64 %21, i1 false), !tbaa !31, !alias.scope !103
  br label %_ZNSt8valarrayIfEaSERKf.exit6

_ZNSt8valarrayIfEaSERKf.exit6:                    ; preds = %.lr.ph.i.i2.preheader, %_ZNSt8valarrayIfEaSERKf.exit
  %22 = getelementptr inbounds nuw i8, ptr %0, i64 272
  %23 = load i64, ptr %22, align 8, !tbaa !13
  %.not3.i.i7 = icmp eq i64 %23, 0
  br i1 %.not3.i.i7, label %_ZNSt8valarrayIfEaSERKf.exit12, label %.lr.ph.i.i8.preheader

.lr.ph.i.i8.preheader:                            ; preds = %_ZNSt8valarrayIfEaSERKf.exit6
  %24 = getelementptr inbounds nuw i8, ptr %0, i64 280
  %25 = load ptr, ptr %24, align 8, !tbaa !16
  %26 = shl nuw i64 %23, 2
  tail call void @llvm.memset.p0.i64(ptr align 4 %25, i8 0, i64 %26, i1 false), !tbaa !31, !alias.scope !106
  br label %_ZNSt8valarrayIfEaSERKf.exit12

_ZNSt8valarrayIfEaSERKf.exit12:                   ; preds = %.lr.ph.i.i8.preheader, %_ZNSt8valarrayIfEaSERKf.exit6
  %27 = getelementptr inbounds nuw i8, ptr %0, i64 288
  %28 = load i64, ptr %27, align 8, !tbaa !13
  %.not3.i.i13 = icmp eq i64 %28, 0
  br i1 %.not3.i.i13, label %_ZNSt8valarrayIfEaSERKf.exit18, label %.lr.ph.i.i14.preheader

.lr.ph.i.i14.preheader:                           ; preds = %_ZNSt8valarrayIfEaSERKf.exit12
  %29 = getelementptr inbounds nuw i8, ptr %0, i64 296
  %30 = load ptr, ptr %29, align 8, !tbaa !16
  %31 = shl nuw i64 %28, 2
  tail call void @llvm.memset.p0.i64(ptr align 4 %30, i8 0, i64 %31, i1 false), !tbaa !31, !alias.scope !109
  br label %_ZNSt8valarrayIfEaSERKf.exit18

_ZNSt8valarrayIfEaSERKf.exit18:                   ; preds = %.lr.ph.i.i14.preheader, %_ZNSt8valarrayIfEaSERKf.exit12
  %32 = getelementptr inbounds nuw i8, ptr %0, i64 320
  %33 = load i64, ptr %32, align 8, !tbaa !13
  %.not3.i.i19 = icmp eq i64 %33, 0
  br i1 %.not3.i.i19, label %_ZNSt8valarrayIfEaSERKf.exit24, label %.lr.ph.i.i20.preheader

.lr.ph.i.i20.preheader:                           ; preds = %_ZNSt8valarrayIfEaSERKf.exit18
  %34 = getelementptr inbounds nuw i8, ptr %0, i64 328
  %35 = load ptr, ptr %34, align 8, !tbaa !16
  br label %.lr.ph.i.i20

.lr.ph.i.i20:                                     ; preds = %.lr.ph.i.i20.preheader, %.lr.ph.i.i20
  %.05.i.i21 = phi ptr [ %37, %.lr.ph.i.i20 ], [ %35, %.lr.ph.i.i20.preheader ]
  %.024.i.i22 = phi i64 [ %36, %.lr.ph.i.i20 ], [ %33, %.lr.ph.i.i20.preheader ]
  %36 = add i64 %.024.i.i22, -1
  %37 = getelementptr inbounds nuw i8, ptr %.05.i.i21, i64 4
  store float 0x3FE23D70A0000000, ptr %.05.i.i21, align 4, !tbaa !31, !alias.scope !112
  %.not.i.i23 = icmp eq i64 %36, 0
  br i1 %.not.i.i23, label %_ZNSt8valarrayIfEaSERKf.exit24, label %.lr.ph.i.i20, !llvm.loop !35

_ZNSt8valarrayIfEaSERKf.exit24:                   ; preds = %.lr.ph.i.i20, %_ZNSt8valarrayIfEaSERKf.exit18
  ret void
}